; Function Attrs: mustprogress uwtable
define void @_ZN5arrow7compute16FunctionRegistry4MakeEv(ptr dead_on_unwind noalias writable writeonly sret(%"class.std::unique_ptr") align 8 captures(none) %0) local_unnamed_addr #1 align 2 personality ptr @__gxx_personality_v0 {
  %2 = tail call noalias noundef nonnull dereferenceable(8) ptr @_Znwm(i64 noundef 8) #24
  invoke void @_ZN5arrow7compute16FunctionRegistryC1Ev(ptr noundef nonnull align 8 dereferenceable(8) %2)
          to label %3 unwind label %4

3:                                                ; preds = %1
  store ptr %2, ptr %0, align 8, !tbaa !32
  ret void

4:                                                ; preds = %1
  %5 = landingpad { ptr, i32 }
          cleanup
  tail call void @_ZdlPvm(ptr noundef nonnull %2, i64 noundef 8) #25
  resume { ptr, i32 } %5
}